; Function Attrs: nofree norecurse nosync nounwind memory(argmem: readwrite) uwtable
define internal void @fetch_samples_12(ptr noundef writeonly captures(none) %0, ptr noundef readonly captures(none) %1, i64 noundef %2, i32 noundef %3, i32 noundef %4) #2 {
  %6 = ashr i32 %3, 3
  %7 = ashr i32 %4, 3
  %8 = add nsw i32 %7, -1
  %9 = lshr i64 %2, 1
  %10 = sext i32 %6 to i64
  %11 = getelementptr i16, ptr %1, i64 %10
  %12 = getelementptr i8, ptr %11, i64 -2
  %13 = sext i32 %8 to i64
  %14 = mul nsw i64 %9, %13
  %15 = getelementptr inbounds i16, ptr %12, i64 %14
  %16 = getelementptr inbounds i8, ptr %0, i64 -258
  br label %.lr.ph.i

._crit_edge.i:                                    ; preds = %.lr.ph.i
  %17 = getelementptr inbounds i8, ptr %0, i64 -2
  br label %23

.lr.ph.i:                                         ; preds = %.lr.ph.i, %5
  %indvars.iv.i = phi i64 [ 0, %5 ], [ %indvars.iv.next.i, %.lr.ph.i ]
  %18 = getelementptr inbounds nuw i16, ptr %15, i64 %indvars.iv.i
  %19 = load i16, ptr %18, align 2, !tbaa !124
  %20 = shl i16 %19, 2
  %21 = getelementptr inbounds nuw i16, ptr %16, i64 %indvars.iv.i
  store i16 %20, ptr %21, align 2, !tbaa !124
  %indvars.iv.next.i = add nuw nsw i64 %indvars.iv.i, 1
  %exitcond.not.i = icmp eq i64 %indvars.iv.next.i, 6
  br i1 %exitcond.not.i, label %._crit_edge.i, label %.lr.ph.i, !llvm.loop !205

.preheader.i:                                     ; preds = %23
  %22 = getelementptr inbounds nuw i16, ptr %.03946.i, i64 %9
  br label %.lr.ph51.i

23:                                               ; preds = %23, %._crit_edge.i
  %.pn.i = phi ptr [ %15, %._crit_edge.i ], [ %.03946.i, %23 ]
  %.03745.i = phi i32 [ 0, %._crit_edge.i ], [ %31, %23 ]
  %.04044.i = phi ptr [ %17, %._crit_edge.i ], [ %30, %23 ]
  %.03946.i = getelementptr inbounds nuw i16, ptr %.pn.i, i64 %9
  %24 = load i16, ptr %.03946.i, align 2, !tbaa !124
  %25 = shl i16 %24, 2
  store i16 %25, ptr %.04044.i, align 2, !tbaa !124
  %26 = getelementptr inbounds nuw i8, ptr %.03946.i, i64 10
  %27 = load i16, ptr %26, align 2, !tbaa !124
  %28 = shl i16 %27, 2
  %29 = getelementptr inbounds nuw i8, ptr %.04044.i, i64 10
  store i16 %28, ptr %29, align 2, !tbaa !124
  %30 = getelementptr inbounds nuw i8, ptr %.04044.i, i64 256
  %31 = add nuw nsw i32 %.03745.i, 1
  %exitcond54.not.i = icmp eq i32 %31, 4
  br i1 %exitcond54.not.i, label %.preheader.i, label %23, !llvm.loop !206

.lr.ph51.i:                                       ; preds = %.lr.ph51.i, %.preheader.i
  %indvars.iv55.i = phi i64 [ 0, %.preheader.i ], [ %indvars.iv.next56.i, %.lr.ph51.i ]
  %32 = getelementptr inbounds nuw i16, ptr %22, i64 %indvars.iv55.i
  %33 = load i16, ptr %32, align 2, !tbaa !124
  %34 = shl i16 %33, 2
  %35 = getelementptr inbounds nuw i16, ptr %30, i64 %indvars.iv55.i
  store i16 %34, ptr %35, align 2, !tbaa !124
  %indvars.iv.next56.i = add nuw nsw i64 %indvars.iv55.i, 1
  %exitcond60.not.i = icmp eq i64 %indvars.iv.next56.i, 6
  br i1 %exitcond60.not.i, label %bdof_fetch_samples_12.exit, label %.lr.ph51.i, !llvm.loop !207

bdof_fetch_samples_12.exit:                       ; preds = %.lr.ph51.i
  ret void
}